target datalayout = "e-m:e-p270:32:32-p271:32:32-p272:64:64-i64:64-i128:128-f80:128-n8:16:32:64-S128"
target triple = "x86_64-pc-linux-gnu"

@.str.3 = private unnamed_addr constant [29 x i8] c"../openssl/test/aesgcmtest.c\00", align 1
@.str.8 = private unnamed_addr constant [27 x i8] c"ctx = EVP_CIPHER_CTX_new()\00", align 1
@gcm_key = internal constant [32 x i8] c"\EE\BC\1FWH\7FQ\92\1C\04ef_\8A\E6\D1e\8B\B2m\E6\F8\A0i\A3R\02\93\A5r\07\8F", align 16
@gcm_aad = internal constant [16 x i8] c"M#\C3\CE\C34\B4\9B\DB7\0CC\7F\ECx\DE", align 16
@gcm_pt = internal constant [16 x i8] c"\F5n\87\05[\C3-\0E\EB1\B2\EA\CC+\F2\A5", align 16
@.str.14 = private unnamed_addr constant [35 x i8] c"EVP_CIPHER_CTX_get_tag_length(ctx)\00", align 1
@.str.15 = private unnamed_addr constant [3 x i8] c"16\00", align 1
@.str.18 = private unnamed_addr constant [65 x i8] c"EVP_DecryptInit_ex(ctx, EVP_aes_256_gcm(), NULL, NULL, NULL) > 0\00", align 1
@.str.19 = private unnamed_addr constant [53 x i8] c"EVP_DecryptInit_ex(ctx, NULL, NULL, gcm_key, iv) > 0\00", align 1
@.str.20 = private unnamed_addr constant [68 x i8] c"EVP_DecryptUpdate(ctx, NULL, &outlen, gcm_aad, sizeof(gcm_aad)) > 0\00", align 1
@.str.21 = private unnamed_addr constant [51 x i8] c"EVP_DecryptUpdate(ctx, pt, &ptlen, ct, ct_len) > 0\00", align 1
@.str.22 = private unnamed_addr constant [74 x i8] c"EVP_CIPHER_CTX_ctrl(ctx, EVP_CTRL_AEAD_SET_TAG, tag_len, (void *)tag) > 0\00", align 1
@.str.23 = private unnamed_addr constant [46 x i8] c"EVP_DecryptFinal_ex(ctx, outbuf, &outlen) > 0\00", align 1
@.str.24 = private unnamed_addr constant [7 x i8] c"gcm_pt\00", align 1
@.str.25 = private unnamed_addr constant [3 x i8] c"pt\00", align 1

; Function Attrs: nounwind uwtable
define internal i32 @do_decrypt(ptr noundef %0, ptr noundef %1, i32 noundef %2, ptr noundef %3, i32 noundef %4) #0 {
  %6 = alloca ptr, align 8
  %7 = alloca ptr, align 8
  %8 = alloca i32, align 4
  %9 = alloca ptr, align 8
  %10 = alloca i32, align 4
  %11 = alloca i32, align 4
  %12 = alloca ptr, align 8
  %13 = alloca i32, align 4
  %14 = alloca i32, align 4
  %15 = alloca [32 x i8], align 16
  %16 = alloca [32 x i8], align 16
  store ptr %0, ptr %6, align 8, !tbaa !13
  store ptr %1, ptr %7, align 8, !tbaa !13
  store i32 %2, ptr %8, align 4, !tbaa !4
  store ptr %3, ptr %9, align 8, !tbaa !13
  store i32 %4, ptr %10, align 4, !tbaa !4
  call void @llvm.lifetime.start.p0(i64 4, ptr %11) #3
  store i32 0, ptr %11, align 4, !tbaa !4
  call void @llvm.lifetime.start.p0(i64 8, ptr %12) #3
  store ptr null, ptr %12, align 8, !tbaa !8
  call void @llvm.lifetime.start.p0(i64 4, ptr %13) #3
  call void @llvm.lifetime.start.p0(i64 4, ptr %14) #3
  call void @llvm.lifetime.start.p0(i64 32, ptr %15) #3
  call void @llvm.lifetime.start.p0(i64 32, ptr %16) #3
  %17 = call ptr @EVP_CIPHER_CTX_new()
  store ptr %17, ptr %12, align 8, !tbaa !8
  %18 = call i32 @test_ptr(ptr noundef @.str.3, i32 noundef 75, ptr noundef @.str.8, ptr noundef %17)
  %19 = icmp ne i32 %18, 0
  br i1 %19, label %20, label %93

20:                                               ; preds = %5
  %21 = load ptr, ptr %12, align 8, !tbaa !8
  %22 = call ptr @EVP_aes_256_gcm()
  %23 = call i32 @EVP_DecryptInit_ex(ptr noundef %21, ptr noundef %22, ptr noundef null, ptr noundef null, ptr noundef null)
  %24 = icmp sgt i32 %23, 0
  %25 = zext i1 %24 to i32
  %26 = icmp ne i32 %25, 0
  %27 = zext i1 %26 to i32
  %28 = call i32 @test_true(ptr noundef @.str.3, i32 noundef 77, ptr noundef @.str.18, i32 noundef %27)
  %29 = icmp ne i32 %28, 0
  br i1 %29, label %30, label %93

30:                                               ; preds = %20
  %31 = load ptr, ptr %12, align 8, !tbaa !8
  %32 = load ptr, ptr %6, align 8, !tbaa !13
  %33 = call i32 @EVP_DecryptInit_ex(ptr noundef %31, ptr noundef null, ptr noundef null, ptr noundef @gcm_key, ptr noundef %32)
  %34 = icmp sgt i32 %33, 0
  %35 = zext i1 %34 to i32
  %36 = icmp ne i32 %35, 0
  %37 = zext i1 %36 to i32
  %38 = call i32 @test_true(ptr noundef @.str.3, i32 noundef 78, ptr noundef @.str.19, i32 noundef %37)
  %39 = icmp ne i32 %38, 0
  br i1 %39, label %40, label %93

40:                                               ; preds = %30
  %41 = load ptr, ptr %12, align 8, !tbaa !8
  %42 = call i32 @EVP_CIPHER_CTX_get_tag_length(ptr noundef %41)
  %43 = call i32 @test_int_eq(ptr noundef @.str.3, i32 noundef 79, ptr noundef @.str.14, ptr noundef @.str.15, i32 noundef %42, i32 noundef 16)
  %44 = icmp ne i32 %43, 0
  br i1 %44, label %45, label %93

45:                                               ; preds = %40
  %46 = load ptr, ptr %12, align 8, !tbaa !8
  %47 = call i32 @EVP_DecryptUpdate(ptr noundef %46, ptr noundef null, ptr noundef %13, ptr noundef @gcm_aad, i32 noundef 16)
  %48 = icmp sgt i32 %47, 0
  %49 = zext i1 %48 to i32
  %50 = icmp ne i32 %49, 0
  %51 = zext i1 %50 to i32
  %52 = call i32 @test_true(ptr noundef @.str.3, i32 noundef 81, ptr noundef @.str.20, i32 noundef %51)
  %53 = icmp ne i32 %52, 0
  br i1 %53, label %54, label %93

54:                                               ; preds = %45
  %55 = load ptr, ptr %12, align 8, !tbaa !8
  %56 = getelementptr inbounds [32 x i8], ptr %15, i64 0, i64 0
  %57 = load ptr, ptr %7, align 8, !tbaa !13
  %58 = load i32, ptr %8, align 4, !tbaa !4
  %59 = call i32 @EVP_DecryptUpdate(ptr noundef %55, ptr noundef %56, ptr noundef %14, ptr noundef %57, i32 noundef %58)
  %60 = icmp sgt i32 %59, 0
  %61 = zext i1 %60 to i32
  %62 = icmp ne i32 %61, 0
  %63 = zext i1 %62 to i32
  %64 = call i32 @test_true(ptr noundef @.str.3, i32 noundef 83, ptr noundef @.str.21, i32 noundef %63)
  %65 = icmp ne i32 %64, 0
  br i1 %65, label %66, label %93

66:                                               ; preds = %54
  %67 = load ptr, ptr %12, align 8, !tbaa !8
  %68 = load i32, ptr %10, align 4, !tbaa !4
  %69 = load ptr, ptr %9, align 8, !tbaa !13
  %70 = call i32 @EVP_CIPHER_CTX_ctrl(ptr noundef %67, i32 noundef 17, i32 noundef %68, ptr noundef %69)
  %71 = icmp sgt i32 %70, 0
  %72 = zext i1 %71 to i32
  %73 = icmp ne i32 %72, 0
  %74 = zext i1 %73 to i32
  %75 = call i32 @test_true(ptr noundef @.str.3, i32 noundef 85, ptr noundef @.str.22, i32 noundef %74)
  %76 = icmp ne i32 %75, 0
  br i1 %76, label %77, label %93

77:                                               ; preds = %66
  %78 = load ptr, ptr %12, align 8, !tbaa !8
  %79 = getelementptr inbounds [32 x i8], ptr %16, i64 0, i64 0
  %80 = call i32 @EVP_DecryptFinal_ex(ptr noundef %78, ptr noundef %79, ptr noundef %13)
  %81 = icmp sgt i32 %80, 0
  %82 = zext i1 %81 to i32
  %83 = icmp ne i32 %82, 0
  %84 = zext i1 %83 to i32
  %85 = call i32 @test_true(ptr noundef @.str.3, i32 noundef 86, ptr noundef @.str.23, i32 noundef %84)
  %86 = icmp ne i32 %85, 0
  br i1 %86, label %87, label %93

87:                                               ; preds = %77
  %88 = getelementptr inbounds [32 x i8], ptr %15, i64 0, i64 0
  %89 = load i32, ptr %14, align 4, !tbaa !4
  %90 = sext i32 %89 to i64
  %91 = call i32 @test_mem_eq(ptr noundef @.str.3, i32 noundef 87, ptr noundef @.str.24, ptr noundef @.str.25, ptr noundef @gcm_pt, i64 noundef 16, ptr noundef %88, i64 noundef %90)
  %92 = icmp ne i32 %91, 0
  br label %93

93:                                               ; preds = %87, %77, %66, %54, %45, %40, %30, %20, %5
  %94 = phi i1 [ false, %77 ], [ false, %66 ], [ false, %54 ], [ false, %45 ], [ false, %40 ], [ false, %30 ], [ false, %20 ], [ false, %5 ], [ %92, %87 ]
  %95 = zext i1 %94 to i32
  store i32 %95, ptr %11, align 4, !tbaa !4
  %96 = load ptr, ptr %12, align 8, !tbaa !8
  call void @EVP_CIPHER_CTX_free(ptr noundef %96)
  %97 = load i32, ptr %11, align 4, !tbaa !4
  call void @llvm.lifetime.end.p0(i64 32, ptr %16) #3
  call void @llvm.lifetime.end.p0(i64 32, ptr %15) #3
  call void @llvm.lifetime.end.p0(i64 4, ptr %14) #3
  call void @llvm.lifetime.end.p0(i64 4, ptr %13) #3
  call void @llvm.lifetime.end.p0(i64 8, ptr %12) #3
  call void @llvm.lifetime.end.p0(i64 4, ptr %11) #3
  ret i32 %97
}