; Function Attrs: nounwind uwtable
define internal fastcc range(i32 0, 2) i32 @do_decrypt(ptr noundef %0, ptr noundef nonnull %1, i32 noundef %2, ptr noundef nonnull %3, i32 noundef %4) unnamed_addr #0 {
  %6 = alloca i32, align 4
  %7 = alloca i32, align 4
  %8 = alloca [32 x i8], align 16
  %9 = alloca [32 x i8], align 16
  call void @llvm.lifetime.start.p0(i64 4, ptr nonnull %6) #3
  call void @llvm.lifetime.start.p0(i64 4, ptr nonnull %7) #3
  call void @llvm.lifetime.start.p0(i64 32, ptr nonnull %8) #3
  call void @llvm.lifetime.start.p0(i64 32, ptr nonnull %9) #3
  %10 = tail call ptr @EVP_CIPHER_CTX_new() #3
  %11 = tail call i32 @test_ptr(ptr noundef nonnull @.str.3, i32 noundef 75, ptr noundef nonnull @.str.8, ptr noundef %10) #3
  %.not = icmp eq i32 %11, 0
  br i1 %.not, label %52, label %12

12:                                               ; preds = %5
  %13 = tail call ptr @EVP_aes_256_gcm() #3
  %14 = tail call i32 @EVP_DecryptInit_ex(ptr noundef %10, ptr noundef %13, ptr noundef null, ptr noundef null, ptr noundef null) #3
  %15 = icmp sgt i32 %14, 0
  %16 = zext i1 %15 to i32
  %17 = tail call i32 @test_true(ptr noundef nonnull @.str.3, i32 noundef 77, ptr noundef nonnull @.str.18, i32 noundef %16) #3
  %.not13 = icmp eq i32 %17, 0
  br i1 %.not13, label %52, label %18

18:                                               ; preds = %12
  %19 = tail call i32 @EVP_DecryptInit_ex(ptr noundef %10, ptr noundef null, ptr noundef null, ptr noundef nonnull @gcm_key, ptr noundef %0) #3
  %20 = icmp sgt i32 %19, 0
  %21 = zext i1 %20 to i32
  %22 = tail call i32 @test_true(ptr noundef nonnull @.str.3, i32 noundef 78, ptr noundef nonnull @.str.19, i32 noundef %21) #3
  %.not14 = icmp eq i32 %22, 0
  br i1 %.not14, label %52, label %23

23:                                               ; preds = %18
  %24 = tail call i32 @EVP_CIPHER_CTX_get_tag_length(ptr noundef %10) #3
  %25 = tail call i32 @test_int_eq(ptr noundef nonnull @.str.3, i32 noundef 79, ptr noundef nonnull @.str.14, ptr noundef nonnull @.str.15, i32 noundef %24, i32 noundef 16) #3
  %.not15 = icmp eq i32 %25, 0
  br i1 %.not15, label %52, label %26

26:                                               ; preds = %23
  %27 = call i32 @EVP_DecryptUpdate(ptr noundef %10, ptr noundef null, ptr noundef nonnull %6, ptr noundef nonnull @gcm_aad, i32 noundef 16) #3
  %28 = icmp sgt i32 %27, 0
  %29 = zext i1 %28 to i32
  %30 = call i32 @test_true(ptr noundef nonnull @.str.3, i32 noundef 81, ptr noundef nonnull @.str.20, i32 noundef %29) #3
  %.not16 = icmp eq i32 %30, 0
  br i1 %.not16, label %52, label %31

31:                                               ; preds = %26
  %32 = call i32 @EVP_DecryptUpdate(ptr noundef %10, ptr noundef nonnull %8, ptr noundef nonnull %7, ptr noundef nonnull %1, i32 noundef %2) #3
  %33 = icmp sgt i32 %32, 0
  %34 = zext i1 %33 to i32
  %35 = call i32 @test_true(ptr noundef nonnull @.str.3, i32 noundef 83, ptr noundef nonnull @.str.21, i32 noundef %34) #3
  %.not17 = icmp eq i32 %35, 0
  br i1 %.not17, label %52, label %36

36:                                               ; preds = %31
  %37 = call i32 @EVP_CIPHER_CTX_ctrl(ptr noundef %10, i32 noundef 17, i32 noundef %4, ptr noundef nonnull %3) #3
  %38 = icmp sgt i32 %37, 0
  %39 = zext i1 %38 to i32
  %40 = call i32 @test_true(ptr noundef nonnull @.str.3, i32 noundef 85, ptr noundef nonnull @.str.22, i32 noundef %39) #3
  %.not18 = icmp eq i32 %40, 0
  br i1 %.not18, label %52, label %41

41:                                               ; preds = %36
  %42 = call i32 @EVP_DecryptFinal_ex(ptr noundef %10, ptr noundef nonnull %9, ptr noundef nonnull %6) #3
  %43 = icmp sgt i32 %42, 0
  %44 = zext i1 %43 to i32
  %45 = call i32 @test_true(ptr noundef nonnull @.str.3, i32 noundef 86, ptr noundef nonnull @.str.23, i32 noundef %44) #3
  %.not19 = icmp eq i32 %45, 0
  br i1 %.not19, label %52, label %46

46:                                               ; preds = %41
  %47 = load i32, ptr %7, align 4, !tbaa !4
  %48 = sext i32 %47 to i64
  %49 = call i32 @test_mem_eq(ptr noundef nonnull @.str.3, i32 noundef 87, ptr noundef nonnull @.str.24, ptr noundef nonnull @.str.25, ptr noundef nonnull @gcm_pt, i64 noundef 16, ptr noundef nonnull %8, i64 noundef %48) #3
  %50 = icmp ne i32 %49, 0
  %51 = zext i1 %50 to i32
  br label %52

52:                                               ; preds = %46, %41, %36, %31, %26, %23, %18, %12, %5
  %53 = phi i32 [ 0, %41 ], [ 0, %36 ], [ 0, %31 ], [ 0, %26 ], [ 0, %23 ], [ 0, %18 ], [ 0, %12 ], [ 0, %5 ], [ %51, %46 ]
  call void @EVP_CIPHER_CTX_free(ptr noundef %10) #3
  call void @llvm.lifetime.end.p0(i64 32, ptr nonnull %9) #3
  call void @llvm.lifetime.end.p0(i64 32, ptr nonnull %8) #3
  call void @llvm.lifetime.end.p0(i64 4, ptr nonnull %7) #3
  call void @llvm.lifetime.end.p0(i64 4, ptr nonnull %6) #3
  ret i32 %53
}